target datalayout = "e-m:e-p270:32:32-p271:32:32-p272:64:64-i64:64-i128:128-f80:128-n8:16:32:64-S128"
target triple = "x86_64-pc-linux-gnu"

%struct.FT_BBox_ = type { i64, i64, i64, i64 }
%struct.TBBox_Rec_ = type { %struct.FT_Vector_, %struct.FT_BBox_ }
%struct.FT_Vector_ = type { i64, i64 }

; Function Attrs: nounwind uwtable
define internal i32 @BBox_Move_To(ptr noundef %0, ptr noundef %1) #0 {
  %3 = alloca ptr, align 8
  %4 = alloca ptr, align 8
  %5 = alloca ptr, align 8
  store ptr %0, ptr %3, align 8
  store ptr %1, ptr %4, align 8
  %6 = load ptr, ptr %4, align 8
  store ptr %6, ptr %5, align 8
  br label %7

7:                                                ; preds = %2
  %8 = load ptr, ptr %3, align 8
  %9 = getelementptr inbounds %struct.FT_Vector_, ptr %8, i32 0, i32 0
  %10 = load i64, ptr %9, align 8
  %11 = load ptr, ptr %5, align 8
  %12 = getelementptr inbounds %struct.TBBox_Rec_, ptr %11, i32 0, i32 1
  %13 = getelementptr inbounds %struct.FT_BBox_, ptr %12, i32 0, i32 0
  %14 = load i64, ptr %13, align 8
  %15 = icmp slt i64 %10, %14
  br i1 %15, label %16, label %23

16:                                               ; preds = %7
  %17 = load ptr, ptr %3, align 8
  %18 = getelementptr inbounds %struct.FT_Vector_, ptr %17, i32 0, i32 0
  %19 = load i64, ptr %18, align 8
  %20 = load ptr, ptr %5, align 8
  %21 = getelementptr inbounds %struct.TBBox_Rec_, ptr %20, i32 0, i32 1
  %22 = getelementptr inbounds %struct.FT_BBox_, ptr %21, i32 0, i32 0
  store i64 %19, ptr %22, align 8
  br label %23

23:                                               ; preds = %16, %7
  %24 = load ptr, ptr %3, align 8
  %25 = getelementptr inbounds %struct.FT_Vector_, ptr %24, i32 0, i32 0
  %26 = load i64, ptr %25, align 8
  %27 = load ptr, ptr %5, align 8
  %28 = getelementptr inbounds %struct.TBBox_Rec_, ptr %27, i32 0, i32 1
  %29 = getelementptr inbounds %struct.FT_BBox_, ptr %28, i32 0, i32 2
  %30 = load i64, ptr %29, align 8
  %31 = icmp sgt i64 %26, %30
  br i1 %31, label %32, label %39

32:                                               ; preds = %23
  %33 = load ptr, ptr %3, align 8
  %34 = getelementptr inbounds %struct.FT_Vector_, ptr %33, i32 0, i32 0
  %35 = load i64, ptr %34, align 8
  %36 = load ptr, ptr %5, align 8
  %37 = getelementptr inbounds %struct.TBBox_Rec_, ptr %36, i32 0, i32 1
  %38 = getelementptr inbounds %struct.FT_BBox_, ptr %37, i32 0, i32 2
  store i64 %35, ptr %38, align 8
  br label %39

39:                                               ; preds = %32, %23
  %40 = load ptr, ptr %3, align 8
  %41 = getelementptr inbounds %struct.FT_Vector_, ptr %40, i32 0, i32 1
  %42 = load i64, ptr %41, align 8
  %43 = load ptr, ptr %5, align 8
  %44 = getelementptr inbounds %struct.TBBox_Rec_, ptr %43, i32 0, i32 1
  %45 = getelementptr inbounds %struct.FT_BBox_, ptr %44, i32 0, i32 1
  %46 = load i64, ptr %45, align 8
  %47 = icmp slt i64 %42, %46
  br i1 %47, label %48, label %55

48:                                               ; preds = %39
  %49 = load ptr, ptr %3, align 8
  %50 = getelementptr inbounds %struct.FT_Vector_, ptr %49, i32 0, i32 1
  %51 = load i64, ptr %50, align 8
  %52 = load ptr, ptr %5, align 8
  %53 = getelementptr inbounds %struct.TBBox_Rec_, ptr %52, i32 0, i32 1
  %54 = getelementptr inbounds %struct.FT_BBox_, ptr %53, i32 0, i32 1
  store i64 %51, ptr %54, align 8
  br label %55

55:                                               ; preds = %48, %39
  %56 = load ptr, ptr %3, align 8
  %57 = getelementptr inbounds %struct.FT_Vector_, ptr %56, i32 0, i32 1
  %58 = load i64, ptr %57, align 8
  %59 = load ptr, ptr %5, align 8
  %60 = getelementptr inbounds %struct.TBBox_Rec_, ptr %59, i32 0, i32 1
  %61 = getelementptr inbounds %struct.FT_BBox_, ptr %60, i32 0, i32 3
  %62 = load i64, ptr %61, align 8
  %63 = icmp sgt i64 %58, %62
  br i1 %63, label %64, label %71

64:                                               ; preds = %55
  %65 = load ptr, ptr %3, align 8
  %66 = getelementptr inbounds %struct.FT_Vector_, ptr %65, i32 0, i32 1
  %67 = load i64, ptr %66, align 8
  %68 = load ptr, ptr %5, align 8
  %69 = getelementptr inbounds %struct.TBBox_Rec_, ptr %68, i32 0, i32 1
  %70 = getelementptr inbounds %struct.FT_BBox_, ptr %69, i32 0, i32 3
  store i64 %67, ptr %70, align 8
  br label %71

71:                                               ; preds = %64, %55
  br label %72

72:                                               ; preds = %71
  %73 = load ptr, ptr %5, align 8
  %74 = getelementptr inbounds %struct.TBBox_Rec_, ptr %73, i32 0, i32 0
  %75 = load ptr, ptr %3, align 8
  call void @llvm.memcpy.p0.p0.i64(ptr align 8 %74, ptr align 8 %75, i64 16, i1 false)
  ret i32 0
}