; Function Attrs: mustprogress nofree norecurse nosync nounwind willreturn memory(argmem: readwrite) uwtable
define internal noundef i32 @BBox_Move_To(ptr nocapture noundef readonly %0, ptr nocapture noundef %1) #3 {
  %3 = load i64, ptr %0, align 8
  %4 = getelementptr inbounds i8, ptr %1, i64 16
  %5 = load i64, ptr %4, align 8
  %6 = icmp slt i64 %3, %5
  br i1 %6, label %7, label %8

7:                                                ; preds = %2
  store i64 %3, ptr %4, align 8
  %.pre = load i64, ptr %0, align 8
  br label %8

8:                                                ; preds = %7, %2
  %9 = phi i64 [ %.pre, %7 ], [ %3, %2 ]
  %10 = getelementptr inbounds i8, ptr %1, i64 32
  %11 = load i64, ptr %10, align 8
  %12 = icmp sgt i64 %9, %11
  br i1 %12, label %13, label %14

13:                                               ; preds = %8
  store i64 %9, ptr %10, align 8
  br label %14

14:                                               ; preds = %13, %8
  %15 = getelementptr inbounds i8, ptr %0, i64 8
  %16 = load i64, ptr %15, align 8
  %17 = getelementptr inbounds i8, ptr %1, i64 24
  %18 = load i64, ptr %17, align 8
  %19 = icmp slt i64 %16, %18
  br i1 %19, label %20, label %21

20:                                               ; preds = %14
  store i64 %16, ptr %17, align 8
  %.pre22 = load i64, ptr %15, align 8
  br label %21

21:                                               ; preds = %20, %14
  %22 = phi i64 [ %.pre22, %20 ], [ %16, %14 ]
  %23 = getelementptr inbounds i8, ptr %1, i64 40
  %24 = load i64, ptr %23, align 8
  %25 = icmp sgt i64 %22, %24
  br i1 %25, label %26, label %27

26:                                               ; preds = %21
  store i64 %22, ptr %23, align 8
  br label %27

27:                                               ; preds = %21, %26
  tail call void @llvm.memcpy.p0.p0.i64(ptr noundef nonnull align 8 dereferenceable(16) %1, ptr noundef nonnull align 8 dereferenceable(16) %0, i64 16, i1 false)
  ret i32 0
}